target datalayout = "e-m:e-p270:32:32-p271:32:32-p272:64:64-i64:64-i128:128-f80:128-n8:16:32:64-S128"
target triple = "x86_64-pc-linux-gnu"

%class.ZMark = type <{ ptr, ptr, [48 x i8], %class.ZMarkStackAllocator, %class.ZMarkStripeSet, %class.ZMarkTerminate, i64, i64, i64, i64, i64, i64, i32, [36 x i8] }>
%class.ZMarkStackAllocator = type <{ [64 x i8], %class.ZMarkStackSpace, [56 x i8], %class.ZStackList, i8, [63 x i8] }>
%class.ZMarkStackSpace = type <{ %class.ZLock, i64, i64, i64, i8, [7 x i8] }>
%class.ZLock = type { %class.PlatformMutex }
%class.PlatformMutex = type { %union.pthread_mutex_t }
%union.pthread_mutex_t = type { %struct.__pthread_mutex_s }
%struct.__pthread_mutex_s = type { i32, i32, i32, i32, i32, i16, i16, %struct.__pthread_internal_list }
%struct.__pthread_internal_list = type { ptr, ptr }
%class.ZStackList = type { i64, ptr, [48 x i8] }
%class.ZMarkStripeSet = type { i64, [56 x i8], [16 x %class.ZMarkStripe] }
%class.ZMarkStripe = type { %class.ZStackList.1, %class.ZStackList.1 }
%class.ZStackList.1 = type { i64, ptr, [48 x i8] }
%class.ZMarkTerminate = type { i32, i32, i32, i8, %class.ZConditionLock }
%class.ZConditionLock = type { %class.PlatformMonitor }
%class.PlatformMonitor = type { %class.PlatformMutex, %union.pthread_cond_t }
%union.pthread_cond_t = type { %struct.__pthread_cond_s }
%struct.__pthread_cond_s = type { %union.__atomic_wide_counter, %union.__atomic_wide_counter, [2 x i32], [2 x i32], i32, i32, [2 x i32] }
%union.__atomic_wide_counter = type { i64 }
%class.ZMarkContext = type { [8 x i8], %class.ZMarkCache, ptr, ptr, i64, %"class.StringDedup::Requests" }
%class.ZMarkCache = type { i64, [1024 x %class.ZMarkCacheEntry] }
%class.ZMarkCacheEntry = type { ptr, i32, i64 }
%"class.StringDedup::Requests" = type <{ ptr, ptr, i64, i8, [7 x i8] }>
%class.ZMarkStackEntry = type { i64 }
%class.ZMarkThreadLocalStacks = type { ptr, [16 x ptr] }
%class.ZStack = type { i64, ptr, [254 x %class.ZMarkStackEntry] }

@_ZN12WorkerThread10_worker_idE = external thread_local global i32, align 4

; Function Attrs: mustprogress nounwind uwtable
define linkonce_odr hidden noundef zeroext i1 @_ZNK6ZStackI15ZMarkStackEntryLm254EE8is_emptyEv(ptr noundef nonnull align 8 dereferenceable(2048) %0) #1 comdat align 2 {
  %2 = alloca ptr, align 8
  store ptr %0, ptr %2, align 8
  %3 = load ptr, ptr %2, align 8
  %4 = getelementptr inbounds %class.ZStack, ptr %3, i32 0, i32 0
  %5 = load i64, ptr %4, align 8
  %6 = icmp eq i64 %5, 0
  ret i1 %6
}

; Function Attrs: mustprogress nounwind uwtable
define linkonce_odr hidden noundef zeroext i1 @_ZN6ZStackI15ZMarkStackEntryLm254EE3popERS0_(ptr noundef nonnull align 8 dereferenceable(2048) %0, ptr noundef nonnull align 8 dereferenceable(8) %1) #1 comdat align 2 {
  %3 = alloca i1, align 1
  %4 = alloca ptr, align 8
  %5 = alloca ptr, align 8
  store ptr %0, ptr %4, align 8
  store ptr %1, ptr %5, align 8
  %6 = load ptr, ptr %4, align 8
  %7 = call noundef zeroext i1 @_ZNK6ZStackI15ZMarkStackEntryLm254EE8is_emptyEv(ptr noundef nonnull align 8 dereferenceable(2048) %6)
  br i1 %7, label %8, label %9

8:                                                ; preds = %2
  store i1 false, ptr %3, align 1
  br label %16

9:                                                ; preds = %2
  %10 = getelementptr inbounds %class.ZStack, ptr %6, i32 0, i32 2
  %11 = getelementptr inbounds %class.ZStack, ptr %6, i32 0, i32 0
  %12 = load i64, ptr %11, align 8
  %13 = add i64 %12, -1
  store i64 %13, ptr %11, align 8
  %14 = getelementptr inbounds [254 x %class.ZMarkStackEntry], ptr %10, i64 0, i64 %13
  %15 = load ptr, ptr %5, align 8
  call void @llvm.memcpy.p0.p0.i64(ptr align 8 %15, ptr align 8 %14, i64 8, i1 false)
  store i1 true, ptr %3, align 1
  br label %16

16:                                               ; preds = %9, %8
  %17 = load i1, ptr %3, align 1
  ret i1 %17
}

; Function Attrs: mustprogress nounwind uwtable
define linkonce_odr hidden noundef i64 @_ZNK14ZMarkStripeSet9stripe_idEPK11ZMarkStripe(ptr noundef nonnull align 64 dereferenceable(2112) %0, ptr noundef %1) #1 comdat align 2 {
  %3 = alloca ptr, align 8
  %4 = alloca ptr, align 8
  %5 = alloca i64, align 8
  store ptr %0, ptr %3, align 8
  store ptr %1, ptr %4, align 8
  %6 = load ptr, ptr %3, align 8
  %7 = load ptr, ptr %4, align 8
  %8 = ptrtoint ptr %7 to i64
  %9 = getelementptr inbounds %class.ZMarkStripeSet, ptr %6, i32 0, i32 2
  %10 = getelementptr inbounds [16 x %class.ZMarkStripe], ptr %9, i64 0, i64 0
  %11 = ptrtoint ptr %10 to i64
  %12 = sub i64 %8, %11
  %13 = udiv i64 %12, 128
  store i64 %13, ptr %5, align 8
  %14 = load i64, ptr %5, align 8
  ret i64 %14
}

; Function Attrs: mustprogress nounwind uwtable
define linkonce_odr hidden noundef zeroext i1 @_ZN22ZMarkThreadLocalStacks3popEP19ZMarkStackAllocatorP14ZMarkStripeSetP11ZMarkStripeR15ZMarkStackEntry(ptr noundef nonnull align 8 dereferenceable(136) %0, ptr noundef %1, ptr noundef %2, ptr noundef %3, ptr noundef nonnull align 8 dereferenceable(8) %4) #1 comdat align 2 {
  %6 = alloca i1, align 1
  %7 = alloca ptr, align 8
  %8 = alloca ptr, align 8
  %9 = alloca ptr, align 8
  %10 = alloca ptr, align 8
  %11 = alloca ptr, align 8
  %12 = alloca ptr, align 8
  %13 = alloca ptr, align 8
  store ptr %0, ptr %7, align 8
  store ptr %1, ptr %8, align 8
  store ptr %2, ptr %9, align 8
  store ptr %3, ptr %10, align 8
  store ptr %4, ptr %11, align 8
  %14 = load ptr, ptr %7, align 8
  %15 = getelementptr inbounds %class.ZMarkThreadLocalStacks, ptr %14, i32 0, i32 1
  %16 = load ptr, ptr %9, align 8
  %17 = load ptr, ptr %10, align 8
  %18 = call noundef i64 @_ZNK14ZMarkStripeSet9stripe_idEPK11ZMarkStripe(ptr noundef nonnull align 64 dereferenceable(2112) %16, ptr noundef %17)
  %19 = getelementptr inbounds [16 x ptr], ptr %15, i64 0, i64 %18
  store ptr %19, ptr %12, align 8
  %20 = load ptr, ptr %12, align 8
  %21 = load ptr, ptr %20, align 8
  store ptr %21, ptr %13, align 8
  %22 = load ptr, ptr %13, align 8
  %23 = icmp ne ptr %22, null
  br i1 %23, label %24, label %29

24:                                               ; preds = %5
  %25 = load ptr, ptr %13, align 8
  %26 = load ptr, ptr %11, align 8
  %27 = call noundef zeroext i1 @_ZN6ZStackI15ZMarkStackEntryLm254EE3popERS0_(ptr noundef nonnull align 8 dereferenceable(2048) %25, ptr noundef nonnull align 8 dereferenceable(8) %26)
  br i1 %27, label %28, label %29

28:                                               ; preds = %24
  store i1 true, ptr %6, align 1
  br label %35

29:                                               ; preds = %24, %5
  %30 = load ptr, ptr %8, align 8
  %31 = load ptr, ptr %10, align 8
  %32 = load ptr, ptr %12, align 8
  %33 = load ptr, ptr %11, align 8
  %34 = call noundef zeroext i1 @_ZN22ZMarkThreadLocalStacks8pop_slowEP19ZMarkStackAllocatorP11ZMarkStripePP6ZStackI15ZMarkStackEntryLm254EERS5_(ptr noundef nonnull align 8 dereferenceable(136) %14, ptr noundef %30, ptr noundef %31, ptr noundef %32, ptr noundef nonnull align 8 dereferenceable(8) %33)
  store i1 %34, ptr %6, align 1
  br label %35

35:                                               ; preds = %29, %28
  %36 = load i1, ptr %6, align 1
  ret i1 %36
}

; Function Attrs: mustprogress nounwind uwtable
define linkonce_odr hidden noundef ptr @_ZN12ZMarkContext6stripeEv(ptr noundef nonnull align 8 dereferenceable(24648) %0) #1 comdat align 2 {
  %2 = alloca ptr, align 8
  store ptr %0, ptr %2, align 8
  %3 = load ptr, ptr %2, align 8
  %4 = getelementptr inbounds %class.ZMarkContext, ptr %3, i32 0, i32 2
  %5 = load ptr, ptr %4, align 8
  ret ptr %5
}

; Function Attrs: mustprogress nounwind uwtable
define linkonce_odr hidden void @_ZN12ZMarkContext12set_nstripesEm(ptr noundef nonnull align 8 dereferenceable(24648) %0, i64 noundef %1) #1 comdat align 2 {
  %3 = alloca ptr, align 8
  %4 = alloca i64, align 8
  store ptr %0, ptr %3, align 8
  store i64 %1, ptr %4, align 8
  %5 = load ptr, ptr %3, align 8
  %6 = getelementptr inbounds %class.ZMarkContext, ptr %5, i32 0, i32 1
  %7 = load i64, ptr %4, align 8
  call void @_ZN10ZMarkCache12set_nstripesEm(ptr noundef nonnull align 8 dereferenceable(24584) %6, i64 noundef %7)
  %8 = load i64, ptr %4, align 8
  %9 = getelementptr inbounds %class.ZMarkContext, ptr %5, i32 0, i32 4
  store i64 %8, ptr %9, align 8
  ret void
}

; Function Attrs: mustprogress nounwind uwtable
define linkonce_odr hidden void @_ZN12ZMarkContext10set_stripeEP11ZMarkStripe(ptr noundef nonnull align 8 dereferenceable(24648) %0, ptr noundef %1) #1 comdat align 2 {
  %3 = alloca ptr, align 8
  %4 = alloca ptr, align 8
  store ptr %0, ptr %3, align 8
  store ptr %1, ptr %4, align 8
  %5 = load ptr, ptr %3, align 8
  %6 = load ptr, ptr %4, align 8
  %7 = getelementptr inbounds %class.ZMarkContext, ptr %5, i32 0, i32 2
  store ptr %6, ptr %7, align 8
  ret void
}

; Function Attrs: mustprogress nounwind uwtable
define linkonce_odr hidden noundef i32 @_ZN12WorkerThread9worker_idEv() #1 comdat align 2 {
  %1 = call align 4 ptr @llvm.threadlocal.address.p0(ptr align 4 @_ZN12WorkerThread10_worker_idE)
  %2 = load i32, ptr %1, align 4
  ret i32 %2
}

; Function Attrs: mustprogress nounwind uwtable
define linkonce_odr hidden void @_ZN15ZMarkStackEntryC2Ev(ptr noundef nonnull align 8 dereferenceable(8) %0) unnamed_addr #1 comdat align 2 {
  %2 = alloca ptr, align 8
  store ptr %0, ptr %2, align 8
  ret void
}

; Function Attrs: mustprogress nounwind uwtable
define linkonce_odr hidden noundef ptr @_ZN12ZMarkContext6stacksEv(ptr noundef nonnull align 8 dereferenceable(24648) %0) #1 comdat align 2 {
  %2 = alloca ptr, align 8
  store ptr %0, ptr %2, align 8
  %3 = load ptr, ptr %2, align 8
  %4 = getelementptr inbounds %class.ZMarkContext, ptr %3, i32 0, i32 3
  %5 = load ptr, ptr %4, align 8
  ret ptr %5
}

; Function Attrs: mustprogress nounwind uwtable
define hidden noundef zeroext i1 @_ZN5ZMark5drainEP12ZMarkContext(ptr noundef nonnull align 64 dereferenceable(2652) %0, ptr noundef %1) #1 align 2 {
  %3 = alloca i1, align 1
  %4 = alloca ptr, align 8
  %5 = alloca ptr, align 8
  %6 = alloca ptr, align 8
  %7 = alloca %class.ZMarkStackEntry, align 8
  %8 = alloca i64, align 8
  %9 = alloca %class.ZMarkStackEntry, align 8
  store ptr %0, ptr %4, align 8
  store ptr %1, ptr %5, align 8
  %10 = load ptr, ptr %4, align 8
  %11 = load ptr, ptr %5, align 8
  %12 = call noundef ptr @_ZN12ZMarkContext6stacksEv(ptr noundef nonnull align 8 dereferenceable(24648) %11)
  store ptr %12, ptr %6, align 8
  call void @_ZN15ZMarkStackEntryC2Ev(ptr noundef nonnull align 8 dereferenceable(8) %7)
  store i64 0, ptr %8, align 8
  %13 = load ptr, ptr %5, align 8
  %14 = getelementptr inbounds %class.ZMark, ptr %10, i32 0, i32 4
  %15 = getelementptr inbounds %class.ZMark, ptr %10, i32 0, i32 12
  %16 = load i32, ptr %15, align 8
  %17 = call noundef i32 @_ZN12WorkerThread9worker_idEv()
  %18 = call noundef ptr @_ZN14ZMarkStripeSet17stripe_for_workerEjj(ptr noundef nonnull align 64 dereferenceable(2112) %14, i32 noundef %16, i32 noundef %17)
  call void @_ZN12ZMarkContext10set_stripeEP11ZMarkStripe(ptr noundef nonnull align 8 dereferenceable(24648) %13, ptr noundef %18)
  %19 = load ptr, ptr %5, align 8
  %20 = getelementptr inbounds %class.ZMark, ptr %10, i32 0, i32 4
  %21 = call noundef i64 @_ZNK14ZMarkStripeSet8nstripesEv(ptr noundef nonnull align 64 dereferenceable(2112) %20)
  call void @_ZN12ZMarkContext12set_nstripesEm(ptr noundef nonnull align 8 dereferenceable(24648) %19, i64 noundef %21)
  br label %22

22:                                               ; preds = %41, %2
  %23 = load ptr, ptr %6, align 8
  %24 = getelementptr inbounds %class.ZMark, ptr %10, i32 0, i32 3
  %25 = getelementptr inbounds %class.ZMark, ptr %10, i32 0, i32 4
  %26 = load ptr, ptr %5, align 8
  %27 = call noundef ptr @_ZN12ZMarkContext6stripeEv(ptr noundef nonnull align 8 dereferenceable(24648) %26)
  %28 = call noundef zeroext i1 @_ZN22ZMarkThreadLocalStacks3popEP19ZMarkStackAllocatorP14ZMarkStripeSetP11ZMarkStripeR15ZMarkStackEntry(ptr noundef nonnull align 8 dereferenceable(136) %23, ptr noundef %24, ptr noundef %25, ptr noundef %27, ptr noundef nonnull align 8 dereferenceable(8) %7)
  br i1 %28, label %29, label %42

29:                                               ; preds = %22
  %30 = load ptr, ptr %5, align 8
  call void @llvm.memcpy.p0.p0.i64(ptr align 8 %9, ptr align 8 %7, i64 8, i1 false)
  %31 = getelementptr inbounds %class.ZMarkStackEntry, ptr %9, i32 0, i32 0
  %32 = load i64, ptr %31, align 8
  call void @_ZN5ZMark15mark_and_followEP12ZMarkContext15ZMarkStackEntry(ptr noundef nonnull align 64 dereferenceable(2652) %10, ptr noundef %30, i64 %32)
  %33 = load i64, ptr %8, align 8
  %34 = add i64 %33, 1
  store i64 %34, ptr %8, align 8
  %35 = and i64 %33, 31
  %36 = icmp eq i64 %35, 0
  br i1 %36, label %37, label %41

37:                                               ; preds = %29
  %38 = load ptr, ptr %5, align 8
  %39 = call noundef zeroext i1 @_ZN5ZMark14rebalance_workEP12ZMarkContext(ptr noundef nonnull align 64 dereferenceable(2652) %10, ptr noundef %38)
  br i1 %39, label %40, label %41

40:                                               ; preds = %37
  store i1 false, ptr %3, align 1
  br label %43

41:                                               ; preds = %37, %29
  br label %22, !llvm.loop !11

42:                                               ; preds = %22
  store i1 true, ptr %3, align 1
  br label %43

43:                                               ; preds = %42, %40
  %44 = load i1, ptr %3, align 1
  ret i1 %44
}