; Function Attrs: mustprogress nounwind uwtable
define hidden noundef zeroext i1 @_ZN5ZMark5drainEP12ZMarkContext(ptr noundef nonnull align 64 dereferenceable(2652) %0, ptr noundef %1) local_unnamed_addr #0 align 2 {
  %3 = alloca %class.ZMarkStackEntry, align 8
  %4 = getelementptr inbounds i8, ptr %1, i64 24600
  %5 = load ptr, ptr %4, align 8
  %6 = getelementptr inbounds i8, ptr %0, i64 384
  %7 = getelementptr inbounds i8, ptr %0, i64 2648
  %8 = load i32, ptr %7, align 8
  %9 = tail call align 4 ptr @llvm.threadlocal.address.p0(ptr align 4 @_ZN12WorkerThread10_worker_idE)
  %10 = load i32, ptr %9, align 4
  %11 = tail call noundef ptr @_ZN14ZMarkStripeSet17stripe_for_workerEjj(ptr noundef nonnull align 64 dereferenceable(2112) %6, i32 noundef %8, i32 noundef %10) #15
  %12 = getelementptr inbounds i8, ptr %1, i64 24592
  store ptr %11, ptr %12, align 8
  %13 = tail call noundef i64 @_ZNK14ZMarkStripeSet8nstripesEv(ptr noundef nonnull align 64 dereferenceable(2112) %6) #15
  %14 = getelementptr inbounds i8, ptr %1, i64 8
  tail call void @_ZN10ZMarkCache12set_nstripesEm(ptr noundef nonnull align 8 dereferenceable(24584) %14, i64 noundef %13) #15
  %15 = getelementptr inbounds i8, ptr %1, i64 24608
  store i64 %13, ptr %15, align 8
  %16 = getelementptr inbounds i8, ptr %0, i64 64
  %17 = getelementptr inbounds i8, ptr %5, i64 8
  %18 = getelementptr inbounds i8, ptr %0, i64 448
  %19 = ptrtoint ptr %18 to i64
  br label %20

20:                                               ; preds = %.backedge, %2
  %.09 = phi i64 [ 0, %2 ], [ %35, %.backedge ]
  %21 = load ptr, ptr %12, align 8
  %22 = ptrtoint ptr %21 to i64
  %23 = sub i64 %22, %19
  %24 = lshr i64 %23, 7
  %25 = getelementptr inbounds [16 x ptr], ptr %17, i64 0, i64 %24
  %26 = load ptr, ptr %25, align 8
  %.not.i = icmp eq ptr %26, null
  br i1 %.not.i, label %_ZN22ZMarkThreadLocalStacks3popEP19ZMarkStackAllocatorP14ZMarkStripeSetP11ZMarkStripeR15ZMarkStackEntry.exit, label %27

27:                                               ; preds = %20
  %28 = load i64, ptr %26, align 8
  %.not13.i = icmp eq i64 %28, 0
  br i1 %.not13.i, label %_ZN22ZMarkThreadLocalStacks3popEP19ZMarkStackAllocatorP14ZMarkStripeSetP11ZMarkStripeR15ZMarkStackEntry.exit, label %_ZN22ZMarkThreadLocalStacks3popEP19ZMarkStackAllocatorP14ZMarkStripeSetP11ZMarkStripeR15ZMarkStackEntry.exit.thread

_ZN22ZMarkThreadLocalStacks3popEP19ZMarkStackAllocatorP14ZMarkStripeSetP11ZMarkStripeR15ZMarkStackEntry.exit.thread: ; preds = %27
  %29 = getelementptr inbounds i8, ptr %26, i64 16
  %30 = add i64 %28, -1
  store i64 %30, ptr %26, align 8
  %31 = getelementptr inbounds [254 x %class.ZMarkStackEntry], ptr %29, i64 0, i64 %30
  %32 = load i64, ptr %31, align 8
  store i64 %32, ptr %3, align 8
  br label %34

_ZN22ZMarkThreadLocalStacks3popEP19ZMarkStackAllocatorP14ZMarkStripeSetP11ZMarkStripeR15ZMarkStackEntry.exit: ; preds = %20, %27
  %33 = call noundef zeroext i1 @_ZN22ZMarkThreadLocalStacks8pop_slowEP19ZMarkStackAllocatorP11ZMarkStripePP6ZStackI15ZMarkStackEntryLm254EERS5_(ptr noundef nonnull align 8 dereferenceable(136) %5, ptr noundef nonnull %16, ptr noundef %21, ptr noundef nonnull %25, ptr noundef nonnull align 8 dereferenceable(8) %3) #15
  br i1 %33, label %_ZN22ZMarkThreadLocalStacks3popEP19ZMarkStackAllocatorP14ZMarkStripeSetP11ZMarkStripeR15ZMarkStackEntry.exit._crit_edge, label %40

_ZN22ZMarkThreadLocalStacks3popEP19ZMarkStackAllocatorP14ZMarkStripeSetP11ZMarkStripeR15ZMarkStackEntry.exit._crit_edge: ; preds = %_ZN22ZMarkThreadLocalStacks3popEP19ZMarkStackAllocatorP14ZMarkStripeSetP11ZMarkStripeR15ZMarkStackEntry.exit
  %.sroa.0.0.copyload.pre = load i64, ptr %3, align 8
  br label %34

34:                                               ; preds = %_ZN22ZMarkThreadLocalStacks3popEP19ZMarkStackAllocatorP14ZMarkStripeSetP11ZMarkStripeR15ZMarkStackEntry.exit._crit_edge, %_ZN22ZMarkThreadLocalStacks3popEP19ZMarkStackAllocatorP14ZMarkStripeSetP11ZMarkStripeR15ZMarkStackEntry.exit.thread
  %.sroa.0.0.copyload = phi i64 [ %.sroa.0.0.copyload.pre, %_ZN22ZMarkThreadLocalStacks3popEP19ZMarkStackAllocatorP14ZMarkStripeSetP11ZMarkStripeR15ZMarkStackEntry.exit._crit_edge ], [ %32, %_ZN22ZMarkThreadLocalStacks3popEP19ZMarkStackAllocatorP14ZMarkStripeSetP11ZMarkStripeR15ZMarkStackEntry.exit.thread ]
  call void @_ZN5ZMark15mark_and_followEP12ZMarkContext15ZMarkStackEntry(ptr noundef nonnull align 64 dereferenceable(2652) %0, ptr noundef nonnull %1, i64 %.sroa.0.0.copyload)
  %35 = add i64 %.09, 1
  %36 = and i64 %.09, 31
  %37 = icmp eq i64 %36, 0
  br i1 %37, label %38, label %.backedge

38:                                               ; preds = %34
  %39 = call noundef zeroext i1 @_ZN5ZMark14rebalance_workEP12ZMarkContext(ptr noundef nonnull align 64 dereferenceable(2652) %0, ptr noundef nonnull %1)
  br i1 %39, label %40, label %.backedge

.backedge:                                        ; preds = %38, %34
  br label %20, !llvm.loop !14

40:                                               ; preds = %_ZN22ZMarkThreadLocalStacks3popEP19ZMarkStackAllocatorP14ZMarkStripeSetP11ZMarkStripeR15ZMarkStackEntry.exit, %38
  %.0 = phi i1 [ true, %_ZN22ZMarkThreadLocalStacks3popEP19ZMarkStackAllocatorP14ZMarkStripeSetP11ZMarkStripeR15ZMarkStackEntry.exit ], [ false, %38 ]
  ret i1 %.0
}